target datalayout = "e-m:e-p270:32:32-p271:32:32-p272:64:64-i64:64-i128:128-f80:128-n8:16:32:64-S128"
target triple = "x86_64-pc-linux-gnu"

%struct.llama_ubatch = type { i8, i32, i32, i32, ptr, ptr, ptr, ptr, ptr, ptr }
%struct.llama_sbatch = type { i64, i64, i8, %"class.std::vector", %"class.std::vector", %"class.std::vector.0", ptr, %"class.std::vector.5", %"class.std::vector.10", %"class.std::vector.5", %"class.std::vector.5", %"class.std::vector.15", %"class.std::vector.20" }
%"class.std::vector" = type { %"struct.std::_Vector_base" }
%"struct.std::_Vector_base" = type { %"struct.std::_Vector_base<unsigned long, std::allocator<unsigned long>>::_Vector_impl" }
%"struct.std::_Vector_base<unsigned long, std::allocator<unsigned long>>::_Vector_impl" = type { %"struct.std::_Vector_base<unsigned long, std::allocator<unsigned long>>::_Vector_impl_data" }
%"struct.std::_Vector_base<unsigned long, std::allocator<unsigned long>>::_Vector_impl_data" = type { ptr, ptr, ptr }
%"class.std::vector.0" = type { %"struct.std::_Vector_base.1" }
%"struct.std::_Vector_base.1" = type { %"struct.std::_Vector_base<llama_sbatch_seq, std::allocator<llama_sbatch_seq>>::_Vector_impl" }
%"struct.std::_Vector_base<llama_sbatch_seq, std::allocator<llama_sbatch_seq>>::_Vector_impl" = type { %"struct.std::_Vector_base<llama_sbatch_seq, std::allocator<llama_sbatch_seq>>::_Vector_impl_data" }
%"struct.std::_Vector_base<llama_sbatch_seq, std::allocator<llama_sbatch_seq>>::_Vector_impl_data" = type { ptr, ptr, ptr }
%"class.std::vector.10" = type { %"struct.std::_Vector_base.11" }
%"struct.std::_Vector_base.11" = type { %"struct.std::_Vector_base<float, std::allocator<float>>::_Vector_impl" }
%"struct.std::_Vector_base<float, std::allocator<float>>::_Vector_impl" = type { %"struct.std::_Vector_base<float, std::allocator<float>>::_Vector_impl_data" }
%"struct.std::_Vector_base<float, std::allocator<float>>::_Vector_impl_data" = type { ptr, ptr, ptr }
%"class.std::vector.5" = type { %"struct.std::_Vector_base.6" }
%"struct.std::_Vector_base.6" = type { %"struct.std::_Vector_base<int, std::allocator<int>>::_Vector_impl" }
%"struct.std::_Vector_base<int, std::allocator<int>>::_Vector_impl" = type { %"struct.std::_Vector_base<int, std::allocator<int>>::_Vector_impl_data" }
%"struct.std::_Vector_base<int, std::allocator<int>>::_Vector_impl_data" = type { ptr, ptr, ptr }
%"class.std::vector.15" = type { %"struct.std::_Vector_base.16" }
%"struct.std::_Vector_base.16" = type { %"struct.std::_Vector_base<int *, std::allocator<int *>>::_Vector_impl" }
%"struct.std::_Vector_base<int *, std::allocator<int *>>::_Vector_impl" = type { %"struct.std::_Vector_base<int *, std::allocator<int *>>::_Vector_impl_data" }
%"struct.std::_Vector_base<int *, std::allocator<int *>>::_Vector_impl_data" = type { ptr, ptr, ptr }
%"class.std::vector.20" = type { %"struct.std::_Vector_base.21" }
%"struct.std::_Vector_base.21" = type { %"struct.std::_Vector_base<signed char, std::allocator<signed char>>::_Vector_impl" }
%"struct.std::_Vector_base<signed char, std::allocator<signed char>>::_Vector_impl" = type { %"struct.std::_Vector_base<signed char, std::allocator<signed char>>::_Vector_impl_data" }
%"struct.std::_Vector_base<signed char, std::allocator<signed char>>::_Vector_impl_data" = type { ptr, ptr, ptr }
%struct.llama_sbatch_seq = type { i32, ptr, i64, i64 }
%struct.llama_batch = type { i32, ptr, ptr, ptr, ptr, ptr, ptr }
%"class.__gnu_cxx::__normal_iterator.27" = type { ptr }

@.str = private unnamed_addr constant [117 x i8] c"generated/home/dtcxzyw/WorkSpace/Projects/compilers/llvm-opt-benchmark/bench/llama.cpp/llama.cpp/src/llama-batch.cpp\00", align 1
@.str.1 = private unnamed_addr constant [23 x i8] c"GGML_ASSERT(%s) failed\00", align 1
@.str.8 = private unnamed_addr constant [20 x i8] c"seq[0].n_seq_id > 0\00", align 1
@.str.9 = private unnamed_addr constant [13 x i8] c"s.length > 0\00", align 1

; Function Attrs: mustprogress nounwind uwtable
define linkonce_odr noundef nonnull align 8 dereferenceable(8) ptr @_ZNK9__gnu_cxx17__normal_iteratorIPK16llama_sbatch_seqSt6vectorIS1_SaIS1_EEE4baseEv(ptr noundef nonnull align 8 dereferenceable(8) %0) #2 comdat align 2 {
  %2 = alloca ptr, align 8
  store ptr %0, ptr %2, align 8, !tbaa !216
  %3 = load ptr, ptr %2, align 8
  %4 = getelementptr inbounds nuw %"class.__gnu_cxx::__normal_iterator.27", ptr %3, i32 0, i32 0
  ret ptr %4
}

; Function Attrs: mustprogress nounwind uwtable
define linkonce_odr void @_ZN9__gnu_cxx17__normal_iteratorIPK16llama_sbatch_seqSt6vectorIS1_SaIS1_EEEC2ERKS3_(ptr noundef nonnull align 8 dereferenceable(8) %0, ptr noundef nonnull align 8 dereferenceable(8) %1) unnamed_addr #2 comdat align 2 {
  %3 = alloca ptr, align 8
  %4 = alloca ptr, align 8
  store ptr %0, ptr %3, align 8, !tbaa !216
  store ptr %1, ptr %4, align 8, !tbaa !218
  %5 = load ptr, ptr %3, align 8
  %6 = getelementptr inbounds nuw %"class.__gnu_cxx::__normal_iterator.27", ptr %5, i32 0, i32 0
  %7 = load ptr, ptr %4, align 8, !tbaa !218
  %8 = load ptr, ptr %7, align 8, !tbaa !82
  store ptr %8, ptr %6, align 8, !tbaa !220
  ret void
}

; Function Attrs: inlinehint mustprogress nounwind uwtable
define linkonce_odr noundef zeroext i1 @_ZN9__gnu_cxxeqIPK16llama_sbatch_seqSt6vectorIS1_SaIS1_EEEEbRKNS_17__normal_iteratorIT_T0_EESC_(ptr noundef nonnull align 8 dereferenceable(8) %0, ptr noundef nonnull align 8 dereferenceable(8) %1) #11 comdat {
  %3 = alloca ptr, align 8
  %4 = alloca ptr, align 8
  store ptr %0, ptr %3, align 8, !tbaa !216
  store ptr %1, ptr %4, align 8, !tbaa !216
  %5 = load ptr, ptr %3, align 8, !tbaa !216
  %6 = call noundef nonnull align 8 dereferenceable(8) ptr @_ZNK9__gnu_cxx17__normal_iteratorIPK16llama_sbatch_seqSt6vectorIS1_SaIS1_EEE4baseEv(ptr noundef nonnull align 8 dereferenceable(8) %5) #16
  %7 = load ptr, ptr %6, align 8, !tbaa !82
  %8 = load ptr, ptr %4, align 8, !tbaa !216
  %9 = call noundef nonnull align 8 dereferenceable(8) ptr @_ZNK9__gnu_cxx17__normal_iteratorIPK16llama_sbatch_seqSt6vectorIS1_SaIS1_EEE4baseEv(ptr noundef nonnull align 8 dereferenceable(8) %8) #16
  %10 = load ptr, ptr %9, align 8, !tbaa !82
  %11 = icmp eq ptr %7, %10
  ret i1 %11
}

; Function Attrs: mustprogress nounwind uwtable
define linkonce_odr ptr @_ZNKSt6vectorI16llama_sbatch_seqSaIS0_EE3endEv(ptr noundef nonnull align 8 dereferenceable(24) %0) #2 comdat align 2 {
  %2 = alloca %"class.__gnu_cxx::__normal_iterator.27", align 8
  %3 = alloca ptr, align 8
  store ptr %0, ptr %3, align 8, !tbaa !64
  %4 = load ptr, ptr %3, align 8
  %5 = getelementptr inbounds nuw %"struct.std::_Vector_base.1", ptr %4, i32 0, i32 0
  %6 = getelementptr inbounds nuw %"struct.std::_Vector_base<llama_sbatch_seq, std::allocator<llama_sbatch_seq>>::_Vector_impl_data", ptr %5, i32 0, i32 1
  call void @_ZN9__gnu_cxx17__normal_iteratorIPK16llama_sbatch_seqSt6vectorIS1_SaIS1_EEEC2ERKS3_(ptr noundef nonnull align 8 dereferenceable(8) %2, ptr noundef nonnull align 8 dereferenceable(8) %6) #16
  %7 = getelementptr inbounds nuw %"class.__gnu_cxx::__normal_iterator.27", ptr %2, i32 0, i32 0
  %8 = load ptr, ptr %7, align 8
  ret ptr %8
}

; Function Attrs: mustprogress nounwind uwtable
define linkonce_odr ptr @_ZNKSt6vectorI16llama_sbatch_seqSaIS0_EE5beginEv(ptr noundef nonnull align 8 dereferenceable(24) %0) #2 comdat align 2 {
  %2 = alloca %"class.__gnu_cxx::__normal_iterator.27", align 8
  %3 = alloca ptr, align 8
  store ptr %0, ptr %3, align 8, !tbaa !64
  %4 = load ptr, ptr %3, align 8
  %5 = getelementptr inbounds nuw %"struct.std::_Vector_base.1", ptr %4, i32 0, i32 0
  %6 = getelementptr inbounds nuw %"struct.std::_Vector_base<llama_sbatch_seq, std::allocator<llama_sbatch_seq>>::_Vector_impl_data", ptr %5, i32 0, i32 0
  call void @_ZN9__gnu_cxx17__normal_iteratorIPK16llama_sbatch_seqSt6vectorIS1_SaIS1_EEEC2ERKS3_(ptr noundef nonnull align 8 dereferenceable(8) %2, ptr noundef nonnull align 8 dereferenceable(8) %6) #16
  %7 = getelementptr inbounds nuw %"class.__gnu_cxx::__normal_iterator.27", ptr %2, i32 0, i32 0
  %8 = load ptr, ptr %7, align 8
  ret ptr %8
}

; Function Attrs: mustprogress nounwind uwtable
define linkonce_odr noundef i64 @_ZNKSt6vectorI16llama_sbatch_seqSaIS0_EE4sizeEv(ptr noundef nonnull align 8 dereferenceable(24) %0) #2 comdat align 2 {
  %2 = alloca ptr, align 8
  store ptr %0, ptr %2, align 8, !tbaa !64
  %3 = load ptr, ptr %2, align 8
  %4 = getelementptr inbounds nuw %"struct.std::_Vector_base.1", ptr %3, i32 0, i32 0
  %5 = getelementptr inbounds nuw %"struct.std::_Vector_base<llama_sbatch_seq, std::allocator<llama_sbatch_seq>>::_Vector_impl_data", ptr %4, i32 0, i32 1
  %6 = load ptr, ptr %5, align 8, !tbaa !66
  %7 = getelementptr inbounds nuw %"struct.std::_Vector_base.1", ptr %3, i32 0, i32 0
  %8 = getelementptr inbounds nuw %"struct.std::_Vector_base<llama_sbatch_seq, std::allocator<llama_sbatch_seq>>::_Vector_impl_data", ptr %7, i32 0, i32 0
  %9 = load ptr, ptr %8, align 8, !tbaa !67
  %10 = ptrtoint ptr %6 to i64
  %11 = ptrtoint ptr %9 to i64
  %12 = sub i64 %10, %11
  %13 = sdiv exact i64 %12, 32
  ret i64 %13
}

; Function Attrs: mustprogress nounwind uwtable
define linkonce_odr noundef nonnull align 8 dereferenceable(32) ptr @_ZNSt6vectorI16llama_sbatch_seqSaIS0_EEixEm(ptr noundef nonnull align 8 dereferenceable(24) %0, i64 noundef %1) #2 comdat align 2 {
  %3 = alloca ptr, align 8
  %4 = alloca i64, align 8
  store ptr %0, ptr %3, align 8, !tbaa !64
  store i64 %1, ptr %4, align 8, !tbaa !8
  %5 = load ptr, ptr %3, align 8
  %6 = getelementptr inbounds nuw %"struct.std::_Vector_base.1", ptr %5, i32 0, i32 0
  %7 = getelementptr inbounds nuw %"struct.std::_Vector_base<llama_sbatch_seq, std::allocator<llama_sbatch_seq>>::_Vector_impl_data", ptr %6, i32 0, i32 0
  %8 = load ptr, ptr %7, align 8, !tbaa !67
  %9 = load i64, ptr %4, align 8, !tbaa !8
  %10 = getelementptr inbounds nuw %struct.llama_sbatch_seq, ptr %8, i64 %9
  ret ptr %10
}

; Function Attrs: mustprogress nounwind uwtable
define linkonce_odr noundef zeroext i1 @_ZNKSt6vectorI16llama_sbatch_seqSaIS0_EE5emptyEv(ptr noundef nonnull align 8 dereferenceable(24) %0) #2 comdat align 2 {
  %2 = alloca ptr, align 8
  %3 = alloca %"class.__gnu_cxx::__normal_iterator.27", align 8
  %4 = alloca %"class.__gnu_cxx::__normal_iterator.27", align 8
  store ptr %0, ptr %2, align 8, !tbaa !64
  %5 = load ptr, ptr %2, align 8
  call void @llvm.lifetime.start.p0(i64 8, ptr %3) #16
  %6 = call ptr @_ZNKSt6vectorI16llama_sbatch_seqSaIS0_EE5beginEv(ptr noundef nonnull align 8 dereferenceable(24) %5) #16
  %7 = getelementptr inbounds nuw %"class.__gnu_cxx::__normal_iterator.27", ptr %3, i32 0, i32 0
  store ptr %6, ptr %7, align 8
  call void @llvm.lifetime.start.p0(i64 8, ptr %4) #16
  %8 = call ptr @_ZNKSt6vectorI16llama_sbatch_seqSaIS0_EE3endEv(ptr noundef nonnull align 8 dereferenceable(24) %5) #16
  %9 = getelementptr inbounds nuw %"class.__gnu_cxx::__normal_iterator.27", ptr %4, i32 0, i32 0
  store ptr %8, ptr %9, align 8
  %10 = call noundef zeroext i1 @_ZN9__gnu_cxxeqIPK16llama_sbatch_seqSt6vectorIS1_SaIS1_EEEEbRKNS_17__normal_iteratorIT_T0_EESC_(ptr noundef nonnull align 8 dereferenceable(8) %3, ptr noundef nonnull align 8 dereferenceable(8) %4) #16
  call void @llvm.lifetime.end.p0(i64 8, ptr %4) #16
  call void @llvm.lifetime.end.p0(i64 8, ptr %3) #16
  ret i1 %10
}

; Function Attrs: mustprogress uwtable
define void @_ZN12llama_sbatch11split_equalEm(ptr dead_on_unwind noalias writable sret(%struct.llama_ubatch) align 8 %0, ptr noundef nonnull align 8 dereferenceable(248) %1, i64 noundef %2) #0 align 2 {
  %4 = alloca ptr, align 8
  %5 = alloca i64, align 8
  %6 = alloca i64, align 8
  %7 = alloca i64, align 8
  %8 = alloca i64, align 8
  %9 = alloca i32, align 4
  %10 = alloca ptr, align 8
  store ptr %1, ptr %4, align 8, !tbaa !3
  store i64 %2, ptr %5, align 8, !tbaa !8
  %11 = load ptr, ptr %4, align 8
  %12 = getelementptr inbounds nuw %struct.llama_sbatch, ptr %11, i32 0, i32 0
  %13 = load i64, ptr %12, align 8, !tbaa !106
  %14 = load i64, ptr %5, align 8, !tbaa !8
  %15 = icmp ult i64 %13, %14
  br i1 %15, label %16, label %19

16:                                               ; preds = %3
  %17 = getelementptr inbounds nuw %struct.llama_sbatch, ptr %11, i32 0, i32 0
  %18 = load i64, ptr %17, align 8, !tbaa !106
  br label %21

19:                                               ; preds = %3
  %20 = load i64, ptr %5, align 8, !tbaa !8
  br label %21

21:                                               ; preds = %19, %16
  %22 = phi i64 [ %18, %16 ], [ %20, %19 ]
  store i64 %22, ptr %5, align 8, !tbaa !8
  %23 = load i64, ptr %5, align 8, !tbaa !8
  %24 = getelementptr inbounds nuw %struct.llama_sbatch, ptr %11, i32 0, i32 6
  %25 = load ptr, ptr %24, align 8, !tbaa !83
  %26 = getelementptr inbounds nuw %struct.llama_batch, ptr %25, i32 0, i32 2
  %27 = load ptr, ptr %26, align 8, !tbaa !90
  %28 = icmp ne ptr %27, null
  call void @_ZN12llama_sbatch14reserve_ubatchEmb(ptr dead_on_unwind writable sret(%struct.llama_ubatch) align 8 %0, ptr noundef nonnull align 8 dereferenceable(248) %11, i64 noundef %23, i1 noundef zeroext %28)
  %29 = getelementptr inbounds nuw %struct.llama_sbatch, ptr %11, i32 0, i32 5
  %30 = call noundef zeroext i1 @_ZNKSt6vectorI16llama_sbatch_seqSaIS0_EE5emptyEv(ptr noundef nonnull align 8 dereferenceable(24) %29) #16
  br i1 %30, label %96, label %31

31:                                               ; preds = %21
  call void @llvm.lifetime.start.p0(i64 8, ptr %6) #16
  store i64 0, ptr %6, align 8, !tbaa !8
  call void @llvm.lifetime.start.p0(i64 8, ptr %7) #16
  store i64 0, ptr %7, align 8, !tbaa !8
  %32 = getelementptr inbounds nuw %struct.llama_sbatch, ptr %11, i32 0, i32 5
  %33 = call noundef nonnull align 8 dereferenceable(32) ptr @_ZNSt6vectorI16llama_sbatch_seqSaIS0_EEixEm(ptr noundef nonnull align 8 dereferenceable(24) %32, i64 noundef 0) #16
  %34 = getelementptr inbounds nuw %struct.llama_sbatch_seq, ptr %33, i32 0, i32 0
  %35 = load i32, ptr %34, align 8, !tbaa !84
  %36 = icmp sgt i32 %35, 0
  br i1 %36, label %38, label %37

37:                                               ; preds = %31
  call void (ptr, i32, ptr, ...) @ggml_abort(ptr noundef @.str, i32 noundef 159, ptr noundef @.str.1, ptr noundef @.str.8) #17
  unreachable

38:                                               ; preds = %31
  call void @llvm.lifetime.start.p0(i64 8, ptr %8) #16
  %39 = getelementptr inbounds nuw %struct.llama_sbatch, ptr %11, i32 0, i32 5
  %40 = call noundef i64 @_ZNKSt6vectorI16llama_sbatch_seqSaIS0_EE4sizeEv(ptr noundef nonnull align 8 dereferenceable(24) %39) #16
  store i64 %40, ptr %8, align 8, !tbaa !8
  br label %41

41:                                               ; preds = %93, %38
  %42 = load i64, ptr %8, align 8, !tbaa !8
  %43 = add i64 %42, -1
  store i64 %43, ptr %8, align 8, !tbaa !8
  %44 = icmp ugt i64 %42, 0
  br i1 %44, label %46, label %45

45:                                               ; preds = %41
  store i32 2, ptr %9, align 4
  br label %94

46:                                               ; preds = %41
  call void @llvm.lifetime.start.p0(i64 8, ptr %10) #16
  %47 = getelementptr inbounds nuw %struct.llama_sbatch, ptr %11, i32 0, i32 5
  %48 = load i64, ptr %8, align 8, !tbaa !8
  %49 = call noundef nonnull align 8 dereferenceable(32) ptr @_ZNSt6vectorI16llama_sbatch_seqSaIS0_EEixEm(ptr noundef nonnull align 8 dereferenceable(24) %47, i64 noundef %48) #16
  store ptr %49, ptr %10, align 8, !tbaa !82
  %50 = load ptr, ptr %10, align 8, !tbaa !82
  %51 = getelementptr inbounds nuw %struct.llama_sbatch_seq, ptr %50, i32 0, i32 3
  %52 = load i64, ptr %51, align 8, !tbaa !12
  %53 = icmp ugt i64 %52, 0
  br i1 %53, label %55, label %54

54:                                               ; preds = %46
  call void (ptr, i32, ptr, ...) @ggml_abort(ptr noundef @.str, i32 noundef 164, ptr noundef @.str.1, ptr noundef @.str.9) #17
  unreachable

55:                                               ; preds = %46
  %56 = load i64, ptr %6, align 8, !tbaa !8
  %57 = icmp eq i64 %56, 0
  br i1 %57, label %58, label %72

58:                                               ; preds = %55
  %59 = load ptr, ptr %10, align 8, !tbaa !82
  %60 = getelementptr inbounds nuw %struct.llama_sbatch_seq, ptr %59, i32 0, i32 3
  %61 = load i64, ptr %60, align 8, !tbaa !12
  %62 = load i64, ptr %5, align 8, !tbaa !8
  %63 = icmp ult i64 %61, %62
  br i1 %63, label %64, label %68

64:                                               ; preds = %58
  %65 = load ptr, ptr %10, align 8, !tbaa !82
  %66 = getelementptr inbounds nuw %struct.llama_sbatch_seq, ptr %65, i32 0, i32 3
  %67 = load i64, ptr %66, align 8, !tbaa !12
  br label %70

68:                                               ; preds = %58
  %69 = load i64, ptr %5, align 8, !tbaa !8
  br label %70

70:                                               ; preds = %68, %64
  %71 = phi i64 [ %67, %64 ], [ %69, %68 ]
  store i64 %71, ptr %6, align 8, !tbaa !8
  br label %72

72:                                               ; preds = %70, %55
  %73 = load ptr, ptr %10, align 8, !tbaa !82
  %74 = load i64, ptr %6, align 8, !tbaa !8
  call void @_ZN12llama_sbatch17add_seq_to_ubatchER12llama_ubatchR16llama_sbatch_seqm(ptr noundef nonnull align 8 dereferenceable(248) %11, ptr noundef nonnull align 8 dereferenceable(64) %0, ptr noundef nonnull align 8 dereferenceable(32) %73, i64 noundef %74)
  %75 = load i64, ptr %6, align 8, !tbaa !8
  %76 = load i64, ptr %7, align 8, !tbaa !8
  %77 = add i64 %76, %75
  store i64 %77, ptr %7, align 8, !tbaa !8
  %78 = load ptr, ptr %10, align 8, !tbaa !82
  %79 = getelementptr inbounds nuw %struct.llama_sbatch_seq, ptr %78, i32 0, i32 0
  %80 = load i32, ptr %79, align 8, !tbaa !84
  %81 = icmp sgt i32 %80, 1
  br i1 %81, label %82, label %83

82:                                               ; preds = %72
  store i32 2, ptr %9, align 4
  br label %91

83:                                               ; preds = %72
  %84 = load i64, ptr %6, align 8, !tbaa !8
  %85 = load i64, ptr %7, align 8, !tbaa !8
  %86 = add i64 %84, %85
  %87 = load i64, ptr %5, align 8, !tbaa !8
  %88 = icmp ugt i64 %86, %87
  br i1 %88, label %89, label %90

89:                                               ; preds = %83
  store i32 2, ptr %9, align 4
  br label %91

90:                                               ; preds = %83
  store i32 0, ptr %9, align 4
  br label %91

91:                                               ; preds = %90, %89, %82
  call void @llvm.lifetime.end.p0(i64 8, ptr %10) #16
  %92 = load i32, ptr %9, align 4
  switch i32 %92, label %94 [
    i32 0, label %93
  ]

93:                                               ; preds = %91
  br label %41, !llvm.loop !113

94:                                               ; preds = %91, %45
  call void @llvm.lifetime.end.p0(i64 8, ptr %8) #16
  br label %95

95:                                               ; preds = %94
  call void @llvm.lifetime.end.p0(i64 8, ptr %7) #16
  call void @llvm.lifetime.end.p0(i64 8, ptr %6) #16
  br label %96

96:                                               ; preds = %95, %21
  ret void
}