; Function Attrs: mustprogress uwtable
define void @_ZN12llama_sbatch11split_equalEm(ptr dead_on_unwind noalias writable sret(%struct.llama_ubatch) align 8 captures(none) %0, ptr noundef nonnull align 8 dereferenceable(248) %1, i64 noundef %2) local_unnamed_addr #0 align 2 {
  %4 = load i64, ptr %1, align 8, !tbaa !98
  %. = tail call i64 @llvm.umin.i64(i64 %4, i64 %2)
  %5 = getelementptr inbounds nuw i8, ptr %1, i64 96
  %6 = load ptr, ptr %5, align 8, !tbaa !47
  %7 = getelementptr inbounds nuw i8, ptr %6, i64 16
  %8 = load ptr, ptr %7, align 8, !tbaa !80
  %9 = icmp ne ptr %8, null
  tail call void @_ZN12llama_sbatch14reserve_ubatchEmb(ptr dead_on_unwind writable sret(%struct.llama_ubatch) align 8 %0, ptr noundef nonnull align 8 dereferenceable(248) %1, i64 noundef %., i1 noundef zeroext %9)
  %10 = getelementptr inbounds nuw i8, ptr %1, i64 72
  %11 = load ptr, ptr %10, align 8, !tbaa !99
  %12 = getelementptr inbounds nuw i8, ptr %1, i64 80
  %13 = load ptr, ptr %12, align 8, !tbaa !99
  %14 = icmp eq ptr %11, %13
  br i1 %14, label %.critedge, label %15

15:                                               ; preds = %3
  %16 = load i32, ptr %11, align 8, !tbaa !70
  %17 = icmp sgt i32 %16, 0
  br i1 %17, label %19, label %18

18:                                               ; preds = %15
  tail call void (ptr, i32, ptr, ...) @ggml_abort(ptr noundef nonnull @.str, i32 noundef 159, ptr noundef nonnull @.str.1, ptr noundef nonnull @.str.8) #17
  unreachable

19:                                               ; preds = %15
  %20 = ptrtoint ptr %13 to i64
  %21 = ptrtoint ptr %11 to i64
  %22 = sub i64 %20, %21
  %23 = ashr exact i64 %22, 5
  br label %24

24:                                               ; preds = %36, %19
  %.022 = phi i64 [ 0, %19 ], [ %.1, %36 ]
  %.021 = phi i64 [ 0, %19 ], [ %37, %36 ]
  %.020 = phi i64 [ %23, %19 ], [ %25, %36 ]
  %25 = add i64 %.020, -1
  %.not = icmp eq i64 %.020, 0
  br i1 %.not, label %.critedge, label %26

26:                                               ; preds = %24
  %27 = load ptr, ptr %10, align 8, !tbaa !9
  %28 = getelementptr inbounds nuw %struct.llama_sbatch_seq, ptr %27, i64 %25
  %29 = getelementptr inbounds nuw i8, ptr %28, i64 24
  %30 = load i64, ptr %29, align 8, !tbaa !10
  %.not27 = icmp eq i64 %30, 0
  br i1 %.not27, label %31, label %32

31:                                               ; preds = %26
  tail call void (ptr, i32, ptr, ...) @ggml_abort(ptr noundef nonnull @.str, i32 noundef 164, ptr noundef nonnull @.str.1, ptr noundef nonnull @.str.9) #17
  unreachable

32:                                               ; preds = %26
  %33 = icmp eq i64 %.022, 0
  %.. = tail call i64 @llvm.umin.i64(i64 %30, i64 %.)
  %.1 = select i1 %33, i64 %.., i64 %.022
  tail call void @_ZN12llama_sbatch17add_seq_to_ubatchER12llama_ubatchR16llama_sbatch_seqm(ptr noundef nonnull align 8 dereferenceable(248) %1, ptr noundef nonnull align 8 dereferenceable(64) %0, ptr noundef nonnull align 8 dereferenceable(32) %28, i64 noundef %.1)
  %34 = load i32, ptr %28, align 8, !tbaa !70
  %35 = icmp sgt i32 %34, 1
  br i1 %35, label %.critedge, label %36

36:                                               ; preds = %32
  %37 = add i64 %.1, %.021
  %38 = add i64 %37, %.1
  %.not29 = icmp ugt i64 %38, %.
  br i1 %.not29, label %.critedge, label %24, !llvm.loop !100

.critedge:                                        ; preds = %32, %36, %24, %3
  ret void
}